; Function Attrs: nounwind uwtable
define internal void @callReplyMap(ptr noundef %0, ptr noundef captures(none) initializes((32, 36), (40, 56)) %1, i64 noundef %2, ptr noundef %3) #0 {
  %5 = getelementptr inbounds nuw i8, ptr %1, i64 32
  store i32 5, ptr %5, align 8, !tbaa !15
  %6 = getelementptr inbounds nuw i8, ptr %1, i64 40
  store i64 %2, ptr %6, align 8, !tbaa !18
  %7 = shl i64 %2, 1
  %8 = mul i64 %2, 160
  %9 = tail call noalias ptr @zcalloc(i64 noundef %8) #9
  %10 = getelementptr inbounds nuw i8, ptr %1, i64 48
  store ptr %9, ptr %10, align 8, !tbaa !19
  %.not36.i = icmp eq i64 %7, 0
  br i1 %.not36.i, label %callReplyParseCollection.exit, label %.preheader.lr.ph.i

.preheader.lr.ph.i:                               ; preds = %4
  %11 = getelementptr inbounds nuw i8, ptr %1, i64 36
  br label %.preheader.i

.preheader.i:                                     ; preds = %13, %.preheader.lr.ph.i
  %12 = phi ptr [ %9, %.preheader.lr.ph.i ], [ %29, %13 ]
  %.03235.i = phi i64 [ 0, %.preheader.lr.ph.i ], [ %14, %13 ]
  br label %16

13:                                               ; preds = %36
  %14 = add nuw i64 %.03235.i, 2
  %15 = icmp ult i64 %14, %7
  br i1 %15, label %.preheader.i, label %callReplyParseCollection.exit, !llvm.loop !41

16:                                               ; preds = %36, %.preheader.i
  %17 = phi ptr [ %12, %.preheader.i ], [ %29, %36 ]
  %.034.i = phi i64 [ 0, %.preheader.i ], [ %37, %36 ]
  %18 = load ptr, ptr %1, align 8, !tbaa !24
  %19 = add nuw nsw i64 %.034.i, %.03235.i
  %20 = getelementptr inbounds nuw %struct.CallReply, ptr %17, i64 %19
  store ptr %18, ptr %20, align 8, !tbaa !24
  %21 = load ptr, ptr %10, align 8, !tbaa !19
  %22 = getelementptr inbounds nuw %struct.CallReply, ptr %21, i64 %.03235.i
  %23 = getelementptr inbounds nuw %struct.CallReply, ptr %22, i64 %.034.i
  %24 = tail call i32 @parseReply(ptr noundef %0, ptr noundef %23) #8
  %25 = load ptr, ptr %10, align 8, !tbaa !19
  %26 = getelementptr inbounds nuw %struct.CallReply, ptr %25, i64 %19, i32 5
  %27 = load i32, ptr %26, align 4, !tbaa !5
  %28 = or i32 %27, 2
  store i32 %28, ptr %26, align 4, !tbaa !5
  %29 = load ptr, ptr %10, align 8, !tbaa !19
  %30 = getelementptr inbounds nuw %struct.CallReply, ptr %29, i64 %19, i32 5
  %31 = load i32, ptr %30, align 4, !tbaa !5
  %32 = and i32 %31, 4
  %.not.i = icmp eq i32 %32, 0
  br i1 %.not.i, label %36, label %33

33:                                               ; preds = %16
  %34 = load i32, ptr %11, align 4, !tbaa !5
  %35 = or i32 %34, 4
  store i32 %35, ptr %11, align 4, !tbaa !5
  br label %36

36:                                               ; preds = %33, %16
  %37 = add nuw nsw i64 %.034.i, 1
  %exitcond.not.i = icmp eq i64 %37, 2
  br i1 %exitcond.not.i, label %13, label %16, !llvm.loop !42

callReplyParseCollection.exit:                    ; preds = %13, %4
  %38 = getelementptr inbounds nuw i8, ptr %1, i64 16
  store ptr %3, ptr %38, align 8, !tbaa !25
  %39 = load ptr, ptr %0, align 8, !tbaa !26
  %40 = ptrtoint ptr %39 to i64
  %41 = ptrtoint ptr %3 to i64
  %42 = sub i64 %40, %41
  %43 = getelementptr inbounds nuw i8, ptr %1, i64 24
  store i64 %42, ptr %43, align 8, !tbaa !34
  %44 = getelementptr inbounds nuw i8, ptr %1, i64 36
  %45 = load i32, ptr %44, align 4, !tbaa !5
  %46 = or i32 %45, 4
  store i32 %46, ptr %44, align 4, !tbaa !5
  ret void
}